target datalayout = "e-m:e-p270:32:32-p271:32:32-p272:64:64-i64:64-i128:128-f80:128-n8:16:32:64-S128"
target triple = "x86_64-pc-linux-gnu"

%class.b3QuantizedBvh = type <{ ptr, [8 x i8], %class.b3Vector3, %class.b3Vector3, %class.b3Vector3, i32, i32, i8, [7 x i8], %class.b3AlignedObjectArray, %class.b3AlignedObjectArray, %class.b3AlignedObjectArray.0, %class.b3AlignedObjectArray.0, i32, [4 x i8], %class.b3AlignedObjectArray.2, i32, [4 x i8] }>
%class.b3Vector3 = type { %union.anon }
%union.anon = type { [4 x float] }
%class.b3AlignedObjectArray = type <{ [4 x i8], i32, i32, [4 x i8], ptr, i8, [7 x i8] }>
%class.b3AlignedObjectArray.0 = type <{ [4 x i8], i32, i32, [4 x i8], ptr, i8, [7 x i8] }>
%class.b3AlignedObjectArray.2 = type <{ [4 x i8], i32, i32, [4 x i8], ptr, i8, [7 x i8] }>

; Function Attrs: mustprogress uwtable
define dso_local void @_ZNK14b3QuantizedBvh29reportBoxCastOverlappingNodexEP21b3NodeOverlapCallbackRK9b3Vector3S4_S4_S4_(ptr noundef nonnull align 16 dereferenceable(252) %0, ptr noundef %1, ptr noundef nonnull align 16 dereferenceable(16) %2, ptr noundef nonnull align 16 dereferenceable(16) %3, ptr noundef nonnull align 16 dereferenceable(16) %4, ptr noundef nonnull align 16 dereferenceable(16) %5) #0 align 2 {
  %7 = alloca ptr, align 8
  %8 = alloca ptr, align 8
  %9 = alloca ptr, align 8
  %10 = alloca ptr, align 8
  %11 = alloca ptr, align 8
  %12 = alloca ptr, align 8
  store ptr %0, ptr %7, align 8, !tbaa !4
  store ptr %1, ptr %8, align 8, !tbaa !74
  store ptr %2, ptr %9, align 8, !tbaa !37
  store ptr %3, ptr %10, align 8, !tbaa !37
  store ptr %4, ptr %11, align 8, !tbaa !37
  store ptr %5, ptr %12, align 8, !tbaa !37
  %13 = load ptr, ptr %7, align 8
  %14 = getelementptr inbounds nuw %class.b3QuantizedBvh, ptr %13, i32 0, i32 7
  %15 = load i8, ptr %14, align 8, !tbaa !26, !range !43, !noundef !44
  %16 = trunc i8 %15 to i1
  br i1 %16, label %17, label %25

17:                                               ; preds = %6
  %18 = load ptr, ptr %8, align 8, !tbaa !74
  %19 = load ptr, ptr %9, align 8, !tbaa !37
  %20 = load ptr, ptr %10, align 8, !tbaa !37
  %21 = load ptr, ptr %11, align 8, !tbaa !37
  %22 = load ptr, ptr %12, align 8, !tbaa !37
  %23 = getelementptr inbounds nuw %class.b3QuantizedBvh, ptr %13, i32 0, i32 6
  %24 = load i32, ptr %23, align 4, !tbaa !45
  call void @_ZNK14b3QuantizedBvh36walkStacklessQuantizedTreeAgainstRayEP21b3NodeOverlapCallbackRK9b3Vector3S4_S4_S4_ii(ptr noundef nonnull align 16 dereferenceable(252) %13, ptr noundef %18, ptr noundef nonnull align 16 dereferenceable(16) %19, ptr noundef nonnull align 16 dereferenceable(16) %20, ptr noundef nonnull align 16 dereferenceable(16) %21, ptr noundef nonnull align 16 dereferenceable(16) %22, i32 noundef 0, i32 noundef %24)
  br label %33

25:                                               ; preds = %6
  %26 = load ptr, ptr %8, align 8, !tbaa !74
  %27 = load ptr, ptr %9, align 8, !tbaa !37
  %28 = load ptr, ptr %10, align 8, !tbaa !37
  %29 = load ptr, ptr %11, align 8, !tbaa !37
  %30 = load ptr, ptr %12, align 8, !tbaa !37
  %31 = getelementptr inbounds nuw %class.b3QuantizedBvh, ptr %13, i32 0, i32 6
  %32 = load i32, ptr %31, align 4, !tbaa !45
  call void @_ZNK14b3QuantizedBvh27walkStacklessTreeAgainstRayEP21b3NodeOverlapCallbackRK9b3Vector3S4_S4_S4_ii(ptr noundef nonnull align 16 dereferenceable(252) %13, ptr noundef %26, ptr noundef nonnull align 16 dereferenceable(16) %27, ptr noundef nonnull align 16 dereferenceable(16) %28, ptr noundef nonnull align 16 dereferenceable(16) %29, ptr noundef nonnull align 16 dereferenceable(16) %30, i32 noundef 0, i32 noundef %32)
  br label %33

33:                                               ; preds = %25, %17
  ret void
}