; Function Attrs: mustprogress uwtable
define dso_local void @_ZNK14b3QuantizedBvh29reportBoxCastOverlappingNodexEP21b3NodeOverlapCallbackRK9b3Vector3S4_S4_S4_(ptr noundef nonnull readonly align 16 captures(none) dereferenceable(252) %0, ptr noundef %1, ptr noundef nonnull readonly align 16 captures(none) dereferenceable(16) %2, ptr noundef nonnull readonly align 16 captures(none) dereferenceable(16) %3, ptr noundef nonnull readonly align 16 captures(none) dereferenceable(16) %4, ptr noundef nonnull readonly align 16 captures(none) dereferenceable(16) %5) local_unnamed_addr #2 align 2 {
  %7 = getelementptr inbounds nuw i8, ptr %0, i64 72
  %8 = load i8, ptr %7, align 8, !tbaa !24, !range !42, !noundef !43
  %9 = trunc nuw i8 %8 to i1
  br i1 %9, label %10, label %13

10:                                               ; preds = %6
  %11 = getelementptr inbounds nuw i8, ptr %0, i64 68
  %12 = load i32, ptr %11, align 4, !tbaa !45
  tail call void @_ZNK14b3QuantizedBvh36walkStacklessQuantizedTreeAgainstRayEP21b3NodeOverlapCallbackRK9b3Vector3S4_S4_S4_ii(ptr noundef nonnull align 16 dereferenceable(252) %0, ptr noundef %1, ptr noundef nonnull align 16 dereferenceable(16) %2, ptr noundef nonnull align 16 dereferenceable(16) %3, ptr noundef nonnull align 16 dereferenceable(16) %4, ptr noundef nonnull align 16 dereferenceable(16) %5, i32 noundef 0, i32 noundef %12)
  br label %14

13:                                               ; preds = %6
  tail call void @_ZNK14b3QuantizedBvh27walkStacklessTreeAgainstRayEP21b3NodeOverlapCallbackRK9b3Vector3S4_S4_S4_ii(ptr noundef nonnull align 16 dereferenceable(252) %0, ptr noundef %1, ptr noundef nonnull align 16 dereferenceable(16) %2, ptr noundef nonnull align 16 dereferenceable(16) %3, ptr noundef nonnull align 16 dereferenceable(16) %4, ptr noundef nonnull align 16 dereferenceable(16) %5, i32 poison, i32 poison)
  br label %14

14:                                               ; preds = %13, %10
  ret void
}